; Function Attrs: mustprogress nofree norecurse nosync nounwind willreturn memory(read, inaccessiblemem: write) uwtable
define dso_local noundef zeroext i1 @_ZN4llvm22IndexedInstrProfReader9hasFormatERKNS_12MemoryBufferE(ptr nocapture noundef nonnull readonly align 8 dereferenceable(24) %0) local_unnamed_addr #1 align 2 {
  %2 = getelementptr inbounds nuw i8, ptr %0, i64 16
  %3 = load ptr, ptr %2, align 8
  %4 = getelementptr inbounds nuw i8, ptr %0, i64 8
  %5 = load ptr, ptr %4, align 8
  %6 = ptrtoint ptr %3 to i64
  %7 = ptrtoint ptr %5 to i64
  %8 = sub i64 %6, %7
  %9 = icmp ult i64 %8, 8
  br i1 %9, label %12, label %10

10:                                               ; preds = %1
  call void @llvm.assume(i1 true) [ "align"(ptr %5, i64 8) ]
  %.0.copyload.i.i = load i64, ptr %5, align 8
  %11 = icmp eq i64 %.0.copyload.i.i, -9121646941414855425
  br label %12

12:                                               ; preds = %1, %10
  %.0 = phi i1 [ %11, %10 ], [ false, %1 ]
  ret i1 %.0
}